; ModuleID = '26/384.c'
source_filename = "26/384.c"
target datalayout = "e-m:e-p270:32:32-p271:32:32-p272:64:64-i64:64-f80:128-n8:16:32:64-S128"
target triple = "x86_64-pc-linux-gnu"

@.str = private unnamed_addr constant [3 x i8] c"%s\00", align 1

; Function Attrs: noinline nounwind uwtable
define dso_local i32 @main() #0 {
  %1 = alloca i32, align 4
  %2 = alloca i32, align 4
  %3 = alloca i32, align 4
  %4 = alloca i32, align 4
  %5 = alloca i32, align 4
  %6 = alloca [101 x i8], align 16
  store i32 0, i32* %1, align 4
  store i32 0, i32* %3, align 4
  %7 = bitcast [101 x i8]* %6 to i8*
  call void @llvm.memset.p0i8.i64(i8* align 16 %7, i8 0, i64 101, i1 false)
  %8 = getelementptr inbounds [101 x i8], [101 x i8]* %6, i64 0, i64 0
  %9 = call i32 (i8*, ...) bitcast (i32 (...)* @gets to i32 (i8*, ...)*)(i8* %8)
  %10 = getelementptr inbounds [101 x i8], [101 x i8]* %6, i64 0, i64 0
  %11 = call i64 @strlen(i8* %10) #4
  %12 = trunc i64 %11 to i32
  store i32 %12, i32* %2, align 4
  store i32 0, i32* %4, align 4
  br label %13

13:                                               ; preds = %51, %0
  %14 = load i32, i32* %4, align 4
  %15 = load i32, i32* %2, align 4
  %16 = icmp slt i32 %14, %15
  br i1 %16, label %17, label %54

17:                                               ; preds = %13
  %18 = load i32, i32* %4, align 4
  %19 = sext i32 %18 to i64
  %20 = getelementptr inbounds [101 x i8], [101 x i8]* %6, i64 0, i64 %19
  %21 = load i8, i8* %20, align 1
  %22 = sext i8 %21 to i32
  %23 = icmp eq i32 %22, 32
  br i1 %23, label %24, label %49

24:                                               ; preds = %17
  %25 = load i32, i32* %3, align 4
  %26 = icmp eq i32 %25, 1
  br i1 %26, label %27, label %48

27:                                               ; preds = %24
  %28 = load i32, i32* %4, align 4
  store i32 %28, i32* %5, align 4
  br label %29

29:                                               ; preds = %42, %27
  %30 = load i32, i32* %5, align 4
  %31 = load i32, i32* %2, align 4
  %32 = icmp slt i32 %30, %31
  br i1 %32, label %33, label %45

33:                                               ; preds = %29
  %34 = load i32, i32* %5, align 4
  %35 = add nsw i32 %34, 1
  %36 = sext i32 %35 to i64
  %37 = getelementptr inbounds [101 x i8], [101 x i8]* %6, i64 0, i64 %36
  %38 = load i8, i8* %37, align 1
  %39 = load i32, i32* %5, align 4
  %40 = sext i32 %39 to i64
  %41 = getelementptr inbounds [101 x i8], [101 x i8]* %6, i64 0, i64 %40
  store i8 %38, i8* %41, align 1
  br label %42

42:                                               ; preds = %33
  %43 = load i32, i32* %5, align 4
  %44 = add nsw i32 %43, 1
  store i32 %44, i32* %5, align 4
  br label %29

45:                                               ; preds = %29
  %46 = load i32, i32* %4, align 4
  %47 = sub nsw i32 %46, 1
  store i32 %47, i32* %4, align 4
  br label %48

48:                                               ; preds = %45, %24
  store i32 1, i32* %3, align 4
  br label %50

49:                                               ; preds = %17
  store i32 0, i32* %3, align 4
  br label %50

50:                                               ; preds = %49, %48
  br label %51

51:                                               ; preds = %50
  %52 = load i32, i32* %4, align 4
  %53 = add nsw i32 %52, 1
  store i32 %53, i32* %4, align 4
  br label %13

54:                                               ; preds = %13
  %55 = getelementptr inbounds [101 x i8], [101 x i8]* %6, i64 0, i64 0
  %56 = call i32 (i8*, ...) @printf(i8* getelementptr inbounds ([3 x i8], [3 x i8]* @.str, i64 0, i64 0), i8* %55)
  %57 = load i32, i32* %1, align 4
  ret i32 %57
}

; Function Attrs: argmemonly nounwind willreturn
declare void @llvm.memset.p0i8.i64(i8* nocapture writeonly, i8, i64, i1 immarg) #1

declare dso_local i32 @gets(...) #2

; Function Attrs: nounwind readonly
declare dso_local i64 @strlen(i8*) #3

declare dso_local i32 @printf(i8*, ...) #2


!llvm.module.flags = !{!0}
!llvm.ident = !{!1}

!0 = !{i32 1, !"wchar_size", i32 4}
!1 = !{!"clang version 10.0.0-4ubuntu1 "}
